target datalayout = "e-m:e-p270:32:32-p271:32:32-p272:64:64-i64:64-i128:128-f80:128-n8:16:32:64-S128"
target triple = "x86_64-pc-linux-gnu"

%struct.conn = type { ptr, i32, i8, i8, i8, i8, i8, i8, i8, i8, ptr, i32, i32, i32, %struct.event, i16, i16, ptr, ptr, i32, i32, ptr, ptr, ptr, i32, ptr, i32, i32, i32, i32, i32, i32, i32, %struct.sockaddr_in6, i32, i8, %struct.anon.8, %union.protocol_binary_request_header, i64, i64, i16, i32, i32, ptr, ptr, ptr, ptr, ptr, ptr }
%struct.event = type { %struct.event_callback, %union.anon.0, i32, ptr, %union.anon.2, i16, i16, %struct.timeval }
%struct.event_callback = type { %struct.anon, i16, i8, i8, %union.anon, ptr }
%struct.anon = type { ptr, ptr }
%union.anon = type { ptr }
%union.anon.0 = type { %struct.anon.1 }
%struct.anon.1 = type { ptr, ptr }
%union.anon.2 = type { %struct.anon.3 }
%struct.anon.3 = type { %struct.anon.4, %struct.timeval }
%struct.anon.4 = type { ptr, ptr }
%struct.timeval = type { i64, i64 }
%struct.sockaddr_in6 = type { i16, i16, i32, %struct.in6_addr, i32 }
%struct.in6_addr = type { %union.anon.7 }
%union.anon.7 = type { [4 x i32] }
%struct.anon.8 = type { ptr, i64, i64 }
%union.protocol_binary_request_header = type { %struct.anon.9 }
%struct.anon.9 = type { i8, i8, i16, i8, i8, i16, i32, i32, i64 }

@.str.12 = private unnamed_addr constant [5 x i8] c"get \00", align 1
@.str.13 = private unnamed_addr constant [6 x i8] c"gets \00", align 1
@current_time = external global i32, align 4

; Function Attrs: nounwind uwtable
define dso_local i32 @try_read_command_ascii(ptr noundef %0) #0 {
  %2 = alloca i32, align 4
  %3 = alloca ptr, align 8
  %4 = alloca ptr, align 8
  %5 = alloca ptr, align 8
  %6 = alloca i32, align 4
  %7 = alloca ptr, align 8
  store ptr %0, ptr %3, align 8, !tbaa !4
  call void @llvm.lifetime.start.p0(i64 8, ptr %4) #8
  call void @llvm.lifetime.start.p0(i64 8, ptr %5) #8
  %8 = load ptr, ptr %3, align 8, !tbaa !4
  %9 = getelementptr inbounds nuw %struct.conn, ptr %8, i32 0, i32 20
  %10 = load i32, ptr %9, align 4, !tbaa !68
  %11 = icmp eq i32 %10, 0
  br i1 %11, label %12, label %13

12:                                               ; preds = %1
  store i32 0, ptr %2, align 4
  store i32 1, ptr %6, align 4
  br label %121

13:                                               ; preds = %1
  %14 = load ptr, ptr %3, align 8, !tbaa !4
  %15 = getelementptr inbounds nuw %struct.conn, ptr %14, i32 0, i32 18
  %16 = load ptr, ptr %15, align 8, !tbaa !69
  %17 = load ptr, ptr %3, align 8, !tbaa !4
  %18 = getelementptr inbounds nuw %struct.conn, ptr %17, i32 0, i32 20
  %19 = load i32, ptr %18, align 4, !tbaa !68
  %20 = sext i32 %19 to i64
  %21 = call ptr @memchr(ptr noundef %16, i32 noundef 10, i64 noundef %20) #9
  store ptr %21, ptr %4, align 8, !tbaa !62
  %22 = load ptr, ptr %4, align 8, !tbaa !62
  %23 = icmp ne ptr %22, null
  br i1 %23, label %76, label %24

24:                                               ; preds = %13
  %25 = load ptr, ptr %3, align 8, !tbaa !4
  %26 = getelementptr inbounds nuw %struct.conn, ptr %25, i32 0, i32 20
  %27 = load i32, ptr %26, align 4, !tbaa !68
  %28 = icmp sgt i32 %27, 2048
  br i1 %28, label %29, label %75

29:                                               ; preds = %24
  call void @llvm.lifetime.start.p0(i64 8, ptr %7) #8
  %30 = load ptr, ptr %3, align 8, !tbaa !4
  %31 = getelementptr inbounds nuw %struct.conn, ptr %30, i32 0, i32 18
  %32 = load ptr, ptr %31, align 8, !tbaa !69
  store ptr %32, ptr %7, align 8, !tbaa !62
  br label %33

33:                                               ; preds = %38, %29
  %34 = load ptr, ptr %7, align 8, !tbaa !62
  %35 = load i8, ptr %34, align 1, !tbaa !33
  %36 = sext i8 %35 to i32
  %37 = icmp eq i32 %36, 32
  br i1 %37, label %38, label %41

38:                                               ; preds = %33
  %39 = load ptr, ptr %7, align 8, !tbaa !62
  %40 = getelementptr inbounds nuw i8, ptr %39, i32 1
  store ptr %40, ptr %7, align 8, !tbaa !62
  br label %33, !llvm.loop !81

41:                                               ; preds = %33
  %42 = load ptr, ptr %7, align 8, !tbaa !62
  %43 = load ptr, ptr %3, align 8, !tbaa !4
  %44 = getelementptr inbounds nuw %struct.conn, ptr %43, i32 0, i32 18
  %45 = load ptr, ptr %44, align 8, !tbaa !69
  %46 = ptrtoint ptr %42 to i64
  %47 = ptrtoint ptr %45 to i64
  %48 = sub i64 %46, %47
  %49 = icmp sgt i64 %48, 100
  br i1 %49, label %58, label %50

50:                                               ; preds = %41
  %51 = load ptr, ptr %7, align 8, !tbaa !62
  %52 = call i32 @strncmp(ptr noundef %51, ptr noundef @.str.12, i64 noundef 4) #9
  %53 = icmp ne i32 %52, 0
  br i1 %53, label %54, label %60

54:                                               ; preds = %50
  %55 = load ptr, ptr %7, align 8, !tbaa !62
  %56 = call i32 @strncmp(ptr noundef %55, ptr noundef @.str.13, i64 noundef 5) #9
  %57 = icmp ne i32 %56, 0
  br i1 %57, label %58, label %60

58:                                               ; preds = %54, %41
  %59 = load ptr, ptr %3, align 8, !tbaa !4
  call void @conn_set_state(ptr noundef %59, i32 noundef 8)
  store i32 1, ptr %2, align 4
  store i32 1, ptr %6, align 4
  br label %72

60:                                               ; preds = %54, %50
  %61 = load ptr, ptr %3, align 8, !tbaa !4
  %62 = getelementptr inbounds nuw %struct.conn, ptr %61, i32 0, i32 7
  %63 = load i8, ptr %62, align 1, !tbaa !82, !range !40, !noundef !41
  %64 = trunc i8 %63 to i1
  br i1 %64, label %71, label %65

65:                                               ; preds = %60
  %66 = load ptr, ptr %3, align 8, !tbaa !4
  %67 = call zeroext i1 @rbuf_switch_to_malloc(ptr noundef %66)
  br i1 %67, label %70, label %68

68:                                               ; preds = %65
  %69 = load ptr, ptr %3, align 8, !tbaa !4
  call void @conn_set_state(ptr noundef %69, i32 noundef 8)
  store i32 1, ptr %2, align 4
  store i32 1, ptr %6, align 4
  br label %72

70:                                               ; preds = %65
  br label %71

71:                                               ; preds = %70, %60
  store i32 0, ptr %6, align 4
  br label %72

72:                                               ; preds = %71, %68, %58
  call void @llvm.lifetime.end.p0(i64 8, ptr %7) #8
  %73 = load i32, ptr %6, align 4
  switch i32 %73, label %121 [
    i32 0, label %74
  ]

74:                                               ; preds = %72
  br label %75

75:                                               ; preds = %74, %24
  store i32 0, ptr %2, align 4
  store i32 1, ptr %6, align 4
  br label %121

76:                                               ; preds = %13
  %77 = load ptr, ptr %4, align 8, !tbaa !62
  %78 = getelementptr inbounds i8, ptr %77, i64 1
  store ptr %78, ptr %5, align 8, !tbaa !62
  %79 = load ptr, ptr %4, align 8, !tbaa !62
  %80 = load ptr, ptr %3, align 8, !tbaa !4
  %81 = getelementptr inbounds nuw %struct.conn, ptr %80, i32 0, i32 18
  %82 = load ptr, ptr %81, align 8, !tbaa !69
  %83 = ptrtoint ptr %79 to i64
  %84 = ptrtoint ptr %82 to i64
  %85 = sub i64 %83, %84
  %86 = icmp sgt i64 %85, 1
  br i1 %86, label %87, label %96

87:                                               ; preds = %76
  %88 = load ptr, ptr %4, align 8, !tbaa !62
  %89 = getelementptr inbounds i8, ptr %88, i64 -1
  %90 = load i8, ptr %89, align 1, !tbaa !33
  %91 = sext i8 %90 to i32
  %92 = icmp eq i32 %91, 13
  br i1 %92, label %93, label %96

93:                                               ; preds = %87
  %94 = load ptr, ptr %4, align 8, !tbaa !62
  %95 = getelementptr inbounds i8, ptr %94, i32 -1
  store ptr %95, ptr %4, align 8, !tbaa !62
  br label %96

96:                                               ; preds = %93, %87, %76
  %97 = load ptr, ptr %4, align 8, !tbaa !62
  store i8 0, ptr %97, align 1, !tbaa !33
  %98 = load volatile i32, ptr @current_time, align 4, !tbaa !30
  %99 = load ptr, ptr %3, align 8, !tbaa !4
  %100 = getelementptr inbounds nuw %struct.conn, ptr %99, i32 0, i32 13
  store i32 %98, ptr %100, align 8, !tbaa !83
  %101 = load ptr, ptr %3, align 8, !tbaa !4
  %102 = load ptr, ptr %3, align 8, !tbaa !4
  %103 = getelementptr inbounds nuw %struct.conn, ptr %102, i32 0, i32 18
  %104 = load ptr, ptr %103, align 8, !tbaa !69
  call void @process_command_ascii(ptr noundef %101, ptr noundef %104)
  %105 = load ptr, ptr %5, align 8, !tbaa !62
  %106 = load ptr, ptr %3, align 8, !tbaa !4
  %107 = getelementptr inbounds nuw %struct.conn, ptr %106, i32 0, i32 18
  %108 = load ptr, ptr %107, align 8, !tbaa !69
  %109 = ptrtoint ptr %105 to i64
  %110 = ptrtoint ptr %108 to i64
  %111 = sub i64 %109, %110
  %112 = load ptr, ptr %3, align 8, !tbaa !4
  %113 = getelementptr inbounds nuw %struct.conn, ptr %112, i32 0, i32 20
  %114 = load i32, ptr %113, align 4, !tbaa !68
  %115 = sext i32 %114 to i64
  %116 = sub nsw i64 %115, %111
  %117 = trunc i64 %116 to i32
  store i32 %117, ptr %113, align 4, !tbaa !68
  %118 = load ptr, ptr %5, align 8, !tbaa !62
  %119 = load ptr, ptr %3, align 8, !tbaa !4
  %120 = getelementptr inbounds nuw %struct.conn, ptr %119, i32 0, i32 18
  store ptr %118, ptr %120, align 8, !tbaa !69
  store i32 1, ptr %2, align 4
  store i32 1, ptr %6, align 4
  br label %121

121:                                              ; preds = %96, %75, %72, %12
  call void @llvm.lifetime.end.p0(i64 8, ptr %5) #8
  call void @llvm.lifetime.end.p0(i64 8, ptr %4) #8
  %122 = load i32, ptr %2, align 4
  ret i32 %122
}