; Function Attrs: nounwind uwtable
define dso_local range(i32 0, 2) i32 @try_read_command_ascii(ptr noundef %0) #0 {
  %2 = getelementptr inbounds nuw i8, ptr %0, i64 204
  %3 = load i32, ptr %2, align 4, !tbaa !64
  %4 = icmp eq i32 %3, 0
  br i1 %4, label %.critedge, label %5

5:                                                ; preds = %1
  %6 = getelementptr inbounds nuw i8, ptr %0, i64 192
  %7 = load ptr, ptr %6, align 8, !tbaa !65
  %8 = sext i32 %3 to i64
  %9 = tail call ptr @memchr(ptr noundef %7, i32 noundef 10, i64 noundef %8) #14
  %.not = icmp eq ptr %9, null
  br i1 %.not, label %10, label %32

10:                                               ; preds = %5
  %11 = icmp sgt i32 %3, 2048
  br i1 %11, label %.preheader, label %.critedge

.preheader:                                       ; preds = %10, %.preheader
  %.0 = phi ptr [ %14, %.preheader ], [ %7, %10 ]
  %12 = load i8, ptr %.0, align 1, !tbaa !29
  %13 = icmp eq i8 %12, 32
  %14 = getelementptr inbounds nuw i8, ptr %.0, i64 1
  br i1 %13, label %.preheader, label %15, !llvm.loop !74

15:                                               ; preds = %.preheader
  %16 = ptrtoint ptr %.0 to i64
  %17 = ptrtoint ptr %7 to i64
  %18 = sub i64 %16, %17
  %19 = icmp sgt i64 %18, 100
  br i1 %19, label %24, label %20

20:                                               ; preds = %15
  %21 = tail call i32 @strncmp(ptr noundef nonnull dereferenceable(1) %.0, ptr noundef nonnull dereferenceable(5) @.str.12, i64 noundef 4) #14
  %.not36 = icmp eq i32 %21, 0
  br i1 %.not36, label %25, label %22

22:                                               ; preds = %20
  %23 = tail call i32 @strncmp(ptr noundef nonnull dereferenceable(1) %.0, ptr noundef nonnull dereferenceable(6) @.str.13, i64 noundef 5) #14
  %.not37 = icmp eq i32 %23, 0
  br i1 %.not37, label %25, label %24

24:                                               ; preds = %22, %15
  tail call void @conn_set_state(ptr noundef %0, i32 noundef 8) #13
  br label %.critedge

25:                                               ; preds = %22, %20
  %26 = getelementptr inbounds nuw i8, ptr %0, i64 17
  %27 = load i8, ptr %26, align 1, !tbaa !75, !range !37, !noundef !38
  %28 = trunc nuw i8 %27 to i1
  br i1 %28, label %.critedge, label %29

29:                                               ; preds = %25
  %30 = tail call zeroext i1 @rbuf_switch_to_malloc(ptr noundef nonnull %0) #13
  br i1 %30, label %.critedge, label %31

31:                                               ; preds = %29
  tail call void @conn_set_state(ptr noundef nonnull %0, i32 noundef 8) #13
  br label %.critedge

32:                                               ; preds = %5
  %33 = getelementptr inbounds nuw i8, ptr %9, i64 1
  %34 = ptrtoint ptr %9 to i64
  %35 = ptrtoint ptr %7 to i64
  %36 = sub i64 %34, %35
  %37 = icmp sgt i64 %36, 1
  br i1 %37, label %38, label %42

38:                                               ; preds = %32
  %39 = getelementptr inbounds i8, ptr %9, i64 -1
  %40 = load i8, ptr %39, align 1, !tbaa !29
  %41 = icmp eq i8 %40, 13
  %spec.select = select i1 %41, ptr %39, ptr %9
  br label %42

42:                                               ; preds = %38, %32
  %.033 = phi ptr [ %9, %32 ], [ %spec.select, %38 ]
  store i8 0, ptr %.033, align 1, !tbaa !29
  %43 = load volatile i32, ptr @current_time, align 4, !tbaa !27
  %44 = getelementptr inbounds nuw i8, ptr %0, i64 40
  store i32 %43, ptr %44, align 8, !tbaa !76
  %45 = load ptr, ptr %6, align 8, !tbaa !65
  tail call void @process_command_ascii(ptr noundef nonnull %0, ptr noundef %45)
  %46 = load ptr, ptr %6, align 8, !tbaa !65
  %47 = ptrtoint ptr %33 to i64
  %48 = ptrtoint ptr %46 to i64
  %.neg = sub i64 %48, %47
  %49 = load i32, ptr %2, align 4, !tbaa !64
  %50 = trunc i64 %.neg to i32
  %51 = add i32 %49, %50
  store i32 %51, ptr %2, align 4, !tbaa !64
  store ptr %33, ptr %6, align 8, !tbaa !65
  br label %.critedge

.critedge:                                        ; preds = %24, %31, %10, %25, %29, %1, %42
  %.032 = phi i32 [ 1, %42 ], [ 0, %1 ], [ 0, %29 ], [ 0, %25 ], [ 0, %10 ], [ 1, %31 ], [ 1, %24 ]
  ret i32 %.032
}